; Function Attrs: nounwind sspstrong uwtable
define dso_local void @tcg_gen_orc_vec(i32 noundef %vece, ptr noundef %r, ptr noundef %a, ptr noundef %b) local_unnamed_addr #0 {
entry:
  %0 = load i32, ptr @cpuinfo, align 4
  %1 = and i32 %0, 6144
  %or.cond.not = icmp eq i32 %1, 6144
  br i1 %or.cond.not, label %if.then, label %if.else

if.then:                                          ; preds = %entry
  %2 = tail call align 8 ptr @llvm.threadlocal.address.p0(ptr align 8 @tcg_ctx)
  %3 = load ptr, ptr %2, align 8
  %4 = ptrtoint ptr %r to i64
  %add.ptr.i.i.i = getelementptr i8, ptr %3, i64 %4
  %5 = ptrtoint ptr %a to i64
  %add.ptr.i.i6.i = getelementptr i8, ptr %3, i64 %5
  %6 = ptrtoint ptr %b to i64
  %add.ptr.i.i7.i = getelementptr i8, ptr %3, i64 %6
  %bf.load.i = load i64, ptr %add.ptr.i.i.i, align 8
  %7 = trunc i64 %bf.load.i to i32
  %8 = lshr i32 %7, 16
  %bf.cast.i = and i32 %8, 255
  %bf.load3.i = load i64, ptr %add.ptr.i.i6.i, align 8
  %9 = trunc i64 %bf.load3.i to i32
  %10 = lshr i32 %9, 16
  %bf.cast6.i = and i32 %10, 255
  %cmp.i = icmp samesign uge i32 %bf.cast6.i, %bf.cast.i
  tail call void @llvm.assume(i1 %cmp.i)
  %bf.load8.i = load i64, ptr %add.ptr.i.i7.i, align 8
  %11 = trunc i64 %bf.load8.i to i32
  %12 = lshr i32 %11, 16
  %bf.cast11.i = and i32 %12, 255
  %cmp12.i = icmp samesign uge i32 %bf.cast11.i, %bf.cast.i
  tail call void @llvm.assume(i1 %cmp12.i)
  %13 = ptrtoint ptr %add.ptr.i.i.i to i64
  %14 = ptrtoint ptr %add.ptr.i.i6.i to i64
  %15 = ptrtoint ptr %add.ptr.i.i7.i to i64
  %call.i.i = tail call ptr @tcg_emit_op(i32 noundef 172, i32 noundef 3) #5
  %bf.load.i.i = load i32, ptr %call.i.i, align 8
  %sub.i.i = shl nuw nsw i32 %bf.cast.i, 16
  %bf.value.i.i = add nuw nsw i32 %sub.i.i, 16580608
  %bf.clear.i.i = and i32 %bf.load.i.i, 65535
  %bf.value.masked.i.i = and i32 %bf.value.i.i, 16711680
  %bf.clear4.i.i = or disjoint i32 %bf.clear.i.i, %bf.value.masked.i.i
  store i32 %bf.clear4.i.i, ptr %call.i.i, align 8
  %args.i.i = getelementptr inbounds nuw i8, ptr %call.i.i, i64 32
  store i64 %13, ptr %args.i.i, align 8
  %arrayidx7.i.i = getelementptr i8, ptr %call.i.i, i64 40
  store i64 %14, ptr %arrayidx7.i.i, align 8
  %arrayidx9.i.i = getelementptr i8, ptr %call.i.i, i64 48
  store i64 %15, ptr %arrayidx9.i.i, align 8
  br label %if.end

if.else:                                          ; preds = %entry
  %call = tail call ptr @tcg_temp_new_vec_matching(ptr noundef %r) #5
  %16 = load i32, ptr @cpuinfo, align 4
  %17 = and i32 %16, 6144
  %or.cond.not.i = icmp eq i32 %17, 6144
  br i1 %or.cond.not.i, label %if.then.i, label %if.else.i

if.then.i:                                        ; preds = %if.else
  %18 = tail call align 8 ptr @llvm.threadlocal.address.p0(ptr align 8 @tcg_ctx)
  %19 = load ptr, ptr %18, align 8
  %20 = ptrtoint ptr %call to i64
  %add.ptr.i.i.i.i = getelementptr i8, ptr %19, i64 %20
  %21 = ptrtoint ptr %b to i64
  %add.ptr.i.i4.i.i = getelementptr i8, ptr %19, i64 %21
  %bf.load.i.i7 = load i64, ptr %add.ptr.i.i.i.i, align 8
  %22 = trunc i64 %bf.load.i.i7 to i32
  %23 = lshr i32 %22, 16
  %bf.cast.i.i = and i32 %23, 255
  %bf.load2.i.i = load i64, ptr %add.ptr.i.i4.i.i, align 8
  %24 = trunc i64 %bf.load2.i.i to i32
  %25 = lshr i32 %24, 16
  %bf.cast5.i.i = and i32 %25, 255
  %cmp.i.i = icmp samesign uge i32 %bf.cast5.i.i, %bf.cast.i.i
  tail call void @llvm.assume(i1 %cmp.i.i)
  %26 = ptrtoint ptr %add.ptr.i.i.i.i to i64
  %27 = ptrtoint ptr %add.ptr.i.i4.i.i to i64
  %call.i.i.i = tail call ptr @tcg_emit_op(i32 noundef 176, i32 noundef 2) #5
  %bf.load.i.i.i = load i32, ptr %call.i.i.i, align 8
  %sub.i.i.i = shl nuw nsw i32 %bf.cast.i.i, 16
  %bf.value.i.i.i = add nuw nsw i32 %sub.i.i.i, 16580608
  %bf.clear.i.i.i = and i32 %bf.load.i.i.i, 65535
  %bf.value.masked.i.i.i = and i32 %bf.value.i.i.i, 16711680
  %bf.clear4.i.i.i = or disjoint i32 %bf.value.masked.i.i.i, %bf.clear.i.i.i
  store i32 %bf.clear4.i.i.i, ptr %call.i.i.i, align 8
  %args.i.i.i = getelementptr inbounds nuw i8, ptr %call.i.i.i, i64 32
  store i64 %26, ptr %args.i.i.i, align 8
  %arrayidx7.i.i.i = getelementptr i8, ptr %call.i.i.i, i64 40
  store i64 %27, ptr %arrayidx7.i.i.i, align 8
  br label %tcg_gen_not_vec.exit

if.else.i:                                        ; preds = %if.else
  %call.i = tail call ptr @tcg_constant_vec_matching(ptr noundef %call, i32 noundef 0, i64 noundef -1) #5
  %28 = tail call align 8 ptr @llvm.threadlocal.address.p0(ptr align 8 @tcg_ctx)
  %29 = load ptr, ptr %28, align 8
  %30 = ptrtoint ptr %call to i64
  %add.ptr.i.i.i.i.i = getelementptr i8, ptr %29, i64 %30
  %31 = ptrtoint ptr %b to i64
  %add.ptr.i.i6.i.i.i = getelementptr i8, ptr %29, i64 %31
  %32 = ptrtoint ptr %call.i to i64
  %add.ptr.i.i7.i.i.i = getelementptr i8, ptr %29, i64 %32
  %bf.load.i.i4.i = load i64, ptr %add.ptr.i.i.i.i.i, align 8
  %33 = trunc i64 %bf.load.i.i4.i to i32
  %34 = lshr i32 %33, 16
  %bf.cast.i.i.i = and i32 %34, 255
  %bf.load3.i.i.i = load i64, ptr %add.ptr.i.i6.i.i.i, align 8
  %35 = trunc i64 %bf.load3.i.i.i to i32
  %36 = lshr i32 %35, 16
  %bf.cast6.i.i.i = and i32 %36, 255
  %cmp.i.i.i = icmp samesign uge i32 %bf.cast6.i.i.i, %bf.cast.i.i.i
  tail call void @llvm.assume(i1 %cmp.i.i.i)
  %bf.load8.i.i.i = load i64, ptr %add.ptr.i.i7.i.i.i, align 8
  %37 = trunc i64 %bf.load8.i.i.i to i32
  %38 = lshr i32 %37, 16
  %bf.cast11.i.i.i = and i32 %38, 255
  %cmp12.i.i.i = icmp samesign uge i32 %bf.cast11.i.i.i, %bf.cast.i.i.i
  tail call void @llvm.assume(i1 %cmp12.i.i.i)
  %39 = ptrtoint ptr %add.ptr.i.i.i.i.i to i64
  %40 = ptrtoint ptr %add.ptr.i.i6.i.i.i to i64
  %41 = ptrtoint ptr %add.ptr.i.i7.i.i.i to i64
  %call.i.i.i.i = tail call ptr @tcg_emit_op(i32 noundef 170, i32 noundef 3) #5
  %bf.load.i.i.i.i = load i32, ptr %call.i.i.i.i, align 8
  %sub.i.i.i.i = shl nuw nsw i32 %bf.cast.i.i.i, 16
  %bf.value.i.i.i.i = add nuw nsw i32 %sub.i.i.i.i, 16580608
  %bf.clear.i.i.i.i = and i32 %bf.load.i.i.i.i, 65535
  %bf.value.masked.i.i.i.i = and i32 %bf.value.i.i.i.i, 16711680
  %bf.clear4.i.i.i.i = or disjoint i32 %bf.clear.i.i.i.i, %bf.value.masked.i.i.i.i
  store i32 %bf.clear4.i.i.i.i, ptr %call.i.i.i.i, align 8
  %args.i.i.i.i = getelementptr inbounds nuw i8, ptr %call.i.i.i.i, i64 32
  store i64 %39, ptr %args.i.i.i.i, align 8
  %arrayidx7.i.i.i.i = getelementptr i8, ptr %call.i.i.i.i, i64 40
  store i64 %40, ptr %arrayidx7.i.i.i.i, align 8
  %arrayidx9.i.i.i.i = getelementptr i8, ptr %call.i.i.i.i, i64 48
  store i64 %41, ptr %arrayidx9.i.i.i.i, align 8
  br label %tcg_gen_not_vec.exit

tcg_gen_not_vec.exit:                             ; preds = %if.then.i, %if.else.i
  %.pre-phi21 = phi ptr [ %18, %if.then.i ], [ %28, %if.else.i ]
  %.pre-phi = phi i64 [ %20, %if.then.i ], [ %30, %if.else.i ]
  %42 = load ptr, ptr %.pre-phi21, align 8
  %43 = ptrtoint ptr %r to i64
  %add.ptr.i.i.i.i8 = getelementptr i8, ptr %42, i64 %43
  %44 = ptrtoint ptr %a to i64
  %add.ptr.i.i6.i.i = getelementptr i8, ptr %42, i64 %44
  %add.ptr.i.i7.i.i = getelementptr i8, ptr %42, i64 %.pre-phi
  %bf.load.i.i9 = load i64, ptr %add.ptr.i.i.i.i8, align 8
  %45 = trunc i64 %bf.load.i.i9 to i32
  %46 = lshr i32 %45, 16
  %bf.cast.i.i10 = and i32 %46, 255
  %bf.load3.i.i = load i64, ptr %add.ptr.i.i6.i.i, align 8
  %47 = trunc i64 %bf.load3.i.i to i32
  %48 = lshr i32 %47, 16
  %bf.cast6.i.i = and i32 %48, 255
  %cmp.i.i11 = icmp samesign uge i32 %bf.cast6.i.i, %bf.cast.i.i10
  tail call void @llvm.assume(i1 %cmp.i.i11)
  %bf.load8.i.i = load i64, ptr %add.ptr.i.i7.i.i, align 8
  %49 = trunc i64 %bf.load8.i.i to i32
  %50 = lshr i32 %49, 16
  %bf.cast11.i.i = and i32 %50, 255
  %cmp12.i.i = icmp samesign uge i32 %bf.cast11.i.i, %bf.cast.i.i10
  tail call void @llvm.assume(i1 %cmp12.i.i)
  %51 = ptrtoint ptr %add.ptr.i.i.i.i8 to i64
  %52 = ptrtoint ptr %add.ptr.i.i6.i.i to i64
  %53 = ptrtoint ptr %add.ptr.i.i7.i.i to i64
  %call.i.i.i12 = tail call ptr @tcg_emit_op(i32 noundef 169, i32 noundef 3) #5
  %bf.load.i.i.i13 = load i32, ptr %call.i.i.i12, align 8
  %sub.i.i.i14 = shl nuw nsw i32 %bf.cast.i.i10, 16
  %bf.value.i.i.i15 = add nuw nsw i32 %sub.i.i.i14, 16580608
  %bf.clear.i.i.i16 = and i32 %bf.load.i.i.i13, 65535
  %bf.value.masked.i.i.i17 = and i32 %bf.value.i.i.i15, 16711680
  %bf.clear4.i.i.i18 = or disjoint i32 %bf.clear.i.i.i16, %bf.value.masked.i.i.i17
  store i32 %bf.clear4.i.i.i18, ptr %call.i.i.i12, align 8
  %args.i.i.i19 = getelementptr inbounds nuw i8, ptr %call.i.i.i12, i64 32
  store i64 %51, ptr %args.i.i.i19, align 8
  %arrayidx7.i.i.i20 = getelementptr i8, ptr %call.i.i.i12, i64 40
  store i64 %52, ptr %arrayidx7.i.i.i20, align 8
  %arrayidx9.i.i.i = getelementptr i8, ptr %call.i.i.i12, i64 48
  store i64 %53, ptr %arrayidx9.i.i.i, align 8
  tail call void @tcg_temp_free_vec(ptr noundef %call) #5
  br label %if.end

if.end:                                           ; preds = %tcg_gen_not_vec.exit, %if.then
  ret void
}